; Function Attrs: nounwind uwtable
define dso_local void @jq_yypop_buffer_state(ptr noundef captures(none) %0) local_unnamed_addr #0 {
  %2 = getelementptr inbounds nuw i8, ptr %0, i64 40
  %3 = load ptr, ptr %2, align 8, !tbaa !22
  %.not = icmp eq ptr %3, null
  br i1 %.not, label %.thread, label %4

4:                                                ; preds = %1
  %5 = getelementptr inbounds nuw i8, ptr %0, i64 24
  %6 = load i64, ptr %5, align 8, !tbaa !23
  %7 = getelementptr inbounds nuw ptr, ptr %3, i64 %6
  %8 = load ptr, ptr %7, align 8, !tbaa !24
  %.not20 = icmp eq ptr %8, null
  br i1 %.not20, label %.thread, label %.thread.i

.thread.i:                                        ; preds = %4
  store ptr null, ptr %7, align 8, !tbaa !24
  %9 = getelementptr inbounds nuw i8, ptr %8, i64 32
  %10 = load i32, ptr %9, align 8, !tbaa !30
  %.not15.i = icmp eq i32 %10, 0
  br i1 %.not15.i, label %jq_yy_delete_buffer.exit, label %11

11:                                               ; preds = %.thread.i
  %12 = getelementptr inbounds nuw i8, ptr %8, i64 8
  %13 = load ptr, ptr %12, align 8, !tbaa !29
  tail call void @jv_mem_free(ptr noundef %13) #17
  br label %jq_yy_delete_buffer.exit

jq_yy_delete_buffer.exit:                         ; preds = %.thread.i, %11
  tail call void @jv_mem_free(ptr noundef nonnull %8) #17
  %14 = load ptr, ptr %2, align 8, !tbaa !22
  %15 = load i64, ptr %5, align 8, !tbaa !23
  %16 = getelementptr inbounds nuw ptr, ptr %14, i64 %15
  store ptr null, ptr %16, align 8, !tbaa !24
  %.not21 = icmp eq i64 %15, 0
  br i1 %.not21, label %.thread, label %17

17:                                               ; preds = %jq_yy_delete_buffer.exit
  %18 = add i64 %15, -1
  store i64 %18, ptr %5, align 8, !tbaa !23
  %.phi.trans.insert = getelementptr inbounds nuw ptr, ptr %14, i64 %18
  %.pre = load ptr, ptr %.phi.trans.insert, align 8, !tbaa !24
  %.not23 = icmp eq ptr %.pre, null
  br i1 %.not23, label %.thread, label %19

19:                                               ; preds = %17
  %20 = getelementptr inbounds nuw i8, ptr %.pre, i64 28
  %21 = load i32, ptr %20, align 4, !tbaa !31
  %22 = getelementptr inbounds nuw i8, ptr %0, i64 52
  store i32 %21, ptr %22, align 4, !tbaa !32
  %23 = getelementptr inbounds nuw i8, ptr %.pre, i64 16
  %24 = load ptr, ptr %23, align 8, !tbaa !33
  %25 = getelementptr inbounds nuw i8, ptr %0, i64 64
  store ptr %24, ptr %25, align 8, !tbaa !34
  %26 = getelementptr inbounds nuw i8, ptr %0, i64 128
  store ptr %24, ptr %26, align 8, !tbaa !35
  %27 = load ptr, ptr %.pre, align 8, !tbaa !36
  %28 = getelementptr inbounds nuw i8, ptr %0, i64 8
  store ptr %27, ptr %28, align 8, !tbaa !19
  %29 = load i8, ptr %24, align 1, !tbaa !37
  %30 = getelementptr inbounds nuw i8, ptr %0, i64 48
  store i8 %29, ptr %30, align 8, !tbaa !38
  %31 = getelementptr inbounds nuw i8, ptr %0, i64 80
  store i32 1, ptr %31, align 8, !tbaa !62
  br label %.thread

.thread:                                          ; preds = %jq_yy_delete_buffer.exit, %17, %19, %4, %1
  ret void
}